target datalayout = "e-m:e-p270:32:32-p271:32:32-p272:64:64-i64:64-i128:128-f80:128-n8:16:32:64-S128"
target triple = "x86_64-pc-linux-gnu"

; Function Attrs: mustprogress nounwind uwtable
define hidden noundef float @_ZN5zxing6qrcode19FinderPatternFinder13centerFromEndEPii(ptr noundef nonnull align 8 dereferenceable(88) %0, ptr noundef %1, i32 noundef %2) #1 align 2 {
  %4 = alloca ptr, align 8
  %5 = alloca ptr, align 8
  %6 = alloca i32, align 4
  store ptr %0, ptr %4, align 8
  store ptr %1, ptr %5, align 8
  store i32 %2, ptr %6, align 4
  %7 = load i32, ptr %6, align 4
  %8 = load ptr, ptr %5, align 8
  %9 = getelementptr inbounds i32, ptr %8, i64 4
  %10 = load i32, ptr %9, align 4
  %11 = sub nsw i32 %7, %10
  %12 = sitofp i32 %11 to float
  %13 = load ptr, ptr %5, align 8
  %14 = getelementptr inbounds i32, ptr %13, i64 3
  %15 = load i32, ptr %14, align 4
  %16 = load ptr, ptr %5, align 8
  %17 = getelementptr inbounds i32, ptr %16, i64 2
  %18 = load i32, ptr %17, align 4
  %19 = add nsw i32 %15, %18
  %20 = load ptr, ptr %5, align 8
  %21 = getelementptr inbounds i32, ptr %20, i64 1
  %22 = load i32, ptr %21, align 4
  %23 = add nsw i32 %19, %22
  %24 = sitofp i32 %23 to float
  %25 = fdiv float %24, 2.000000e+00
  %26 = fsub float %12, %25
  ret float %26
}