; Function Attrs: mustprogress nofree norecurse nosync nounwind willreturn memory(argmem: read) uwtable
define hidden noundef float @_ZN5zxing6qrcode19FinderPatternFinder13centerFromEndEPii(ptr nocapture noundef nonnull readnone align 8 dereferenceable(88) %0, ptr nocapture noundef readonly %1, i32 noundef %2) local_unnamed_addr #9 align 2 {
  %4 = getelementptr inbounds i8, ptr %1, i64 16
  %5 = load i32, ptr %4, align 4
  %6 = sub nsw i32 %2, %5
  %7 = sitofp i32 %6 to float
  %8 = getelementptr inbounds i8, ptr %1, i64 12
  %9 = load i32, ptr %8, align 4
  %10 = getelementptr inbounds i8, ptr %1, i64 8
  %11 = load i32, ptr %10, align 4
  %12 = add nsw i32 %11, %9
  %13 = getelementptr inbounds i8, ptr %1, i64 4
  %14 = load i32, ptr %13, align 4
  %15 = add nsw i32 %12, %14
  %16 = sitofp i32 %15 to float
  %17 = fmul float %16, 5.000000e-01
  %18 = fsub float %7, %17
  ret float %18
}